; Function Attrs: nounwind uwtable
define ptr @l_Lean_beqLOption____x40_Lean_Data_LOption___hyg_42____rarg(ptr noundef %0, ptr noundef %1, ptr noundef %2) #1 {
  %4 = ptrtoint ptr %1 to i64
  %5 = and i64 %4, 1
  %.not.i56 = icmp eq i64 %5, 0
  br i1 %.not.i56, label %9, label %6

6:                                                ; preds = %3
  %7 = lshr i64 %4, 1
  %8 = trunc i64 %7 to i32
  br label %lean_obj_tag.exit

9:                                                ; preds = %3
  %10 = getelementptr i8, ptr %1, i64 4
  %.val.i = load i32, ptr %10, align 4
  %11 = lshr i32 %.val.i, 24
  br label %lean_obj_tag.exit

lean_obj_tag.exit:                                ; preds = %6, %9
  %.0.i = phi i32 [ %8, %6 ], [ %11, %9 ]
  switch i32 %.0.i, label %99 [
    i32 0, label %12
    i32 1, label %34
  ]

12:                                               ; preds = %lean_obj_tag.exit
  %13 = ptrtoint ptr %0 to i64
  %14 = and i64 %13, 1
  %.not85 = icmp eq i64 %14, 0
  br i1 %.not85, label %15, label %lean_dec.exit

15:                                               ; preds = %12
  %16 = load i32, ptr %0, align 4, !tbaa !4
  %17 = icmp sgt i32 %16, 1
  br i1 %17, label %18, label %20, !prof !9

18:                                               ; preds = %15
  %19 = add nsw i32 %16, -1
  store i32 %19, ptr %0, align 4, !tbaa !4
  br label %lean_dec.exit

20:                                               ; preds = %15
  %.not.i54 = icmp eq i32 %16, 0
  br i1 %.not.i54, label %lean_dec.exit, label %21

21:                                               ; preds = %20
  tail call void @lean_dec_ref_cold(ptr noundef nonnull %0) #4
  br label %lean_dec.exit

lean_dec.exit:                                    ; preds = %21, %20, %18, %12
  %22 = ptrtoint ptr %2 to i64
  %23 = and i64 %22, 1
  %.not.i57 = icmp eq i64 %23, 0
  br i1 %.not.i57, label %lean_obj_tag.exit60.thread, label %lean_obj_tag.exit60

lean_obj_tag.exit60:                              ; preds = %lean_dec.exit
  %24 = and i64 %22, 8589934590
  %25 = icmp eq i64 %24, 0
  %spec.select = select i1 %25, ptr inttoptr (i64 3 to ptr), ptr inttoptr (i64 1 to ptr)
  br label %lean_dec.exit31

lean_obj_tag.exit60.thread:                       ; preds = %lean_dec.exit
  %26 = getelementptr i8, ptr %2, i64 4
  %.val.i59 = load i32, ptr %26, align 4
  %27 = icmp ult i32 %.val.i59, 16777216
  br i1 %27, label %lean_dec.exit31, label %.thread

.thread:                                          ; preds = %lean_obj_tag.exit60.thread
  %28 = load i32, ptr %2, align 4, !tbaa !4
  %29 = icmp sgt i32 %28, 1
  br i1 %29, label %30, label %32, !prof !9

30:                                               ; preds = %.thread
  %31 = add nsw i32 %28, -1
  store i32 %31, ptr %2, align 4, !tbaa !4
  br label %lean_dec.exit31

32:                                               ; preds = %.thread
  %.not.i52 = icmp eq i32 %28, 0
  br i1 %.not.i52, label %lean_dec.exit31, label %33

33:                                               ; preds = %32
  tail call void @lean_dec_ref_cold(ptr noundef nonnull %2) #4
  br label %lean_dec.exit31

34:                                               ; preds = %lean_obj_tag.exit
  %35 = ptrtoint ptr %2 to i64
  %36 = and i64 %35, 1
  %.not.i61 = icmp eq i64 %36, 0
  br i1 %.not.i61, label %lean_obj_tag.exit64.thread, label %lean_obj_tag.exit64

lean_obj_tag.exit64:                              ; preds = %34
  %37 = and i64 %35, 8589934590
  %38 = icmp eq i64 %37, 2
  br i1 %38, label %41, label %lean_dec.exit34

lean_obj_tag.exit64.thread:                       ; preds = %34
  %39 = getelementptr i8, ptr %2, i64 4
  %.val.i63 = load i32, ptr %39, align 4
  %.mask = and i32 %.val.i63, -16777216
  %40 = icmp eq i32 %.mask, 16777216
  br i1 %40, label %41, label %.thread76

41:                                               ; preds = %lean_obj_tag.exit64.thread, %lean_obj_tag.exit64
  %42 = getelementptr inbounds nuw i8, ptr %1, i64 8
  %43 = load ptr, ptr %42, align 8, !tbaa !10
  %44 = ptrtoint ptr %43 to i64
  %45 = and i64 %44, 1
  %.not81 = icmp eq i64 %45, 0
  br i1 %.not81, label %46, label %lean_inc.exit

46:                                               ; preds = %41
  %.val.i65 = load i32, ptr %43, align 4, !tbaa !4
  %47 = icmp sgt i32 %.val.i65, 0
  br i1 %47, label %48, label %50, !prof !9

48:                                               ; preds = %46
  %49 = add nuw i32 %.val.i65, 1
  store i32 %49, ptr %43, align 4, !tbaa !4
  br label %lean_inc.exit

50:                                               ; preds = %46
  %.not.i66 = icmp eq i32 %.val.i65, 0
  br i1 %.not.i66, label %lean_inc.exit, label %51

51:                                               ; preds = %50
  tail call void @lean_inc_ref_cold(ptr noundef nonnull %43) #4
  br label %lean_inc.exit

lean_inc.exit:                                    ; preds = %51, %50, %48, %41
  br i1 %.not.i56, label %52, label %lean_dec.exit32

52:                                               ; preds = %lean_inc.exit
  %53 = load i32, ptr %1, align 4, !tbaa !4
  %54 = icmp sgt i32 %53, 1
  br i1 %54, label %55, label %57, !prof !9

55:                                               ; preds = %52
  %56 = add nsw i32 %53, -1
  store i32 %56, ptr %1, align 4, !tbaa !4
  br label %lean_dec.exit32

57:                                               ; preds = %52
  %.not.i50 = icmp eq i32 %53, 0
  br i1 %.not.i50, label %lean_dec.exit32, label %58

58:                                               ; preds = %57
  tail call void @lean_dec_ref_cold(ptr noundef nonnull %1) #4
  br label %lean_dec.exit32

lean_dec.exit32:                                  ; preds = %58, %57, %55, %lean_inc.exit
  %59 = getelementptr inbounds nuw i8, ptr %2, i64 8
  %60 = load ptr, ptr %59, align 8, !tbaa !10
  %61 = ptrtoint ptr %60 to i64
  %62 = and i64 %61, 1
  %.not83 = icmp eq i64 %62, 0
  br i1 %.not83, label %63, label %lean_inc.exit39

63:                                               ; preds = %lean_dec.exit32
  %.val.i67 = load i32, ptr %60, align 4, !tbaa !4
  %64 = icmp sgt i32 %.val.i67, 0
  br i1 %64, label %65, label %67, !prof !9

65:                                               ; preds = %63
  %66 = add nuw i32 %.val.i67, 1
  store i32 %66, ptr %60, align 4, !tbaa !4
  br label %lean_inc.exit39

67:                                               ; preds = %63
  %.not.i68 = icmp eq i32 %.val.i67, 0
  br i1 %.not.i68, label %lean_inc.exit39, label %68

68:                                               ; preds = %67
  tail call void @lean_inc_ref_cold(ptr noundef nonnull %60) #4
  br label %lean_inc.exit39

lean_inc.exit39:                                  ; preds = %68, %67, %65, %lean_dec.exit32
  br i1 %.not.i61, label %69, label %lean_dec.exit33

69:                                               ; preds = %lean_inc.exit39
  %70 = load i32, ptr %2, align 4, !tbaa !4
  %71 = icmp sgt i32 %70, 1
  br i1 %71, label %72, label %74, !prof !9

72:                                               ; preds = %69
  %73 = add nsw i32 %70, -1
  store i32 %73, ptr %2, align 4, !tbaa !4
  br label %lean_dec.exit33

74:                                               ; preds = %69
  %.not.i48 = icmp eq i32 %70, 0
  br i1 %.not.i48, label %lean_dec.exit33, label %75

75:                                               ; preds = %74
  tail call void @lean_dec_ref_cold(ptr noundef nonnull %2) #4
  br label %lean_dec.exit33

lean_dec.exit33:                                  ; preds = %75, %74, %72, %lean_inc.exit39
  %76 = tail call ptr @lean_apply_2(ptr noundef %0, ptr noundef %43, ptr noundef %60) #4
  br label %lean_dec.exit31

.thread76:                                        ; preds = %lean_obj_tag.exit64.thread
  %77 = load i32, ptr %2, align 4, !tbaa !4
  %78 = icmp sgt i32 %77, 1
  br i1 %78, label %79, label %81, !prof !9

79:                                               ; preds = %.thread76
  %80 = add nsw i32 %77, -1
  store i32 %80, ptr %2, align 4, !tbaa !4
  br label %lean_dec.exit34

81:                                               ; preds = %.thread76
  %.not.i46 = icmp eq i32 %77, 0
  br i1 %.not.i46, label %lean_dec.exit34, label %82

82:                                               ; preds = %81
  tail call void @lean_dec_ref_cold(ptr noundef nonnull %2) #4
  br label %lean_dec.exit34

lean_dec.exit34:                                  ; preds = %lean_obj_tag.exit64, %82, %81, %79
  br i1 %.not.i56, label %83, label %lean_dec.exit35

83:                                               ; preds = %lean_dec.exit34
  %84 = load i32, ptr %1, align 4, !tbaa !4
  %85 = icmp sgt i32 %84, 1
  br i1 %85, label %86, label %88, !prof !9

86:                                               ; preds = %83
  %87 = add nsw i32 %84, -1
  store i32 %87, ptr %1, align 4, !tbaa !4
  br label %lean_dec.exit35

88:                                               ; preds = %83
  %.not.i44 = icmp eq i32 %84, 0
  br i1 %.not.i44, label %lean_dec.exit35, label %89

89:                                               ; preds = %88
  tail call void @lean_dec_ref_cold(ptr noundef nonnull %1) #4
  br label %lean_dec.exit35

lean_dec.exit35:                                  ; preds = %89, %88, %86, %lean_dec.exit34
  %90 = ptrtoint ptr %0 to i64
  %91 = and i64 %90, 1
  %.not80 = icmp eq i64 %91, 0
  br i1 %.not80, label %92, label %lean_dec.exit31

92:                                               ; preds = %lean_dec.exit35
  %93 = load i32, ptr %0, align 4, !tbaa !4
  %94 = icmp sgt i32 %93, 1
  br i1 %94, label %95, label %97, !prof !9

95:                                               ; preds = %92
  %96 = add nsw i32 %93, -1
  store i32 %96, ptr %0, align 4, !tbaa !4
  br label %lean_dec.exit31

97:                                               ; preds = %92
  %.not.i42 = icmp eq i32 %93, 0
  br i1 %.not.i42, label %lean_dec.exit31, label %98

98:                                               ; preds = %97
  tail call void @lean_dec_ref_cold(ptr noundef nonnull %0) #4
  br label %lean_dec.exit31

99:                                               ; preds = %lean_obj_tag.exit
  %100 = ptrtoint ptr %0 to i64
  %101 = and i64 %100, 1
  %.not86 = icmp eq i64 %101, 0
  br i1 %.not86, label %102, label %lean_dec.exit37

102:                                              ; preds = %99
  %103 = load i32, ptr %0, align 4, !tbaa !4
  %104 = icmp sgt i32 %103, 1
  br i1 %104, label %105, label %107, !prof !9

105:                                              ; preds = %102
  %106 = add nsw i32 %103, -1
  store i32 %106, ptr %0, align 4, !tbaa !4
  br label %lean_dec.exit37

107:                                              ; preds = %102
  %.not.i40 = icmp eq i32 %103, 0
  br i1 %.not.i40, label %lean_dec.exit37, label %108

108:                                              ; preds = %107
  tail call void @lean_dec_ref_cold(ptr noundef nonnull %0) #4
  br label %lean_dec.exit37

lean_dec.exit37:                                  ; preds = %108, %107, %105, %99
  %109 = ptrtoint ptr %2 to i64
  %110 = and i64 %109, 1
  %.not.i70 = icmp eq i64 %110, 0
  br i1 %.not.i70, label %lean_obj_tag.exit73.thread, label %lean_obj_tag.exit73

lean_obj_tag.exit73:                              ; preds = %lean_dec.exit37
  %111 = and i64 %109, 8589934590
  %112 = icmp eq i64 %111, 4
  %spec.select79 = select i1 %112, ptr inttoptr (i64 3 to ptr), ptr inttoptr (i64 1 to ptr)
  br label %lean_dec.exit31

lean_obj_tag.exit73.thread:                       ; preds = %lean_dec.exit37
  %113 = getelementptr i8, ptr %2, i64 4
  %.val.i72 = load i32, ptr %113, align 4
  %.mask87 = and i32 %.val.i72, -16777216
  %114 = icmp eq i32 %.mask87, 33554432
  br i1 %114, label %lean_dec.exit31, label %.thread78

.thread78:                                        ; preds = %lean_obj_tag.exit73.thread
  %115 = load i32, ptr %2, align 4, !tbaa !4
  %116 = icmp sgt i32 %115, 1
  br i1 %116, label %117, label %119, !prof !9

117:                                              ; preds = %.thread78
  %118 = add nsw i32 %115, -1
  store i32 %118, ptr %2, align 4, !tbaa !4
  br label %lean_dec.exit31

119:                                              ; preds = %.thread78
  %.not.i = icmp eq i32 %115, 0
  br i1 %.not.i, label %lean_dec.exit31, label %120

120:                                              ; preds = %119
  tail call void @lean_dec_ref_cold(ptr noundef nonnull %2) #4
  br label %lean_dec.exit31

lean_dec.exit31:                                  ; preds = %lean_obj_tag.exit73, %lean_obj_tag.exit60, %117, %119, %120, %lean_obj_tag.exit73.thread, %lean_dec.exit35, %95, %97, %98, %30, %32, %33, %lean_obj_tag.exit60.thread, %lean_dec.exit33
  %.0 = phi ptr [ %76, %lean_dec.exit33 ], [ inttoptr (i64 3 to ptr), %lean_obj_tag.exit60.thread ], [ inttoptr (i64 1 to ptr), %33 ], [ inttoptr (i64 1 to ptr), %32 ], [ inttoptr (i64 1 to ptr), %30 ], [ inttoptr (i64 1 to ptr), %98 ], [ inttoptr (i64 1 to ptr), %97 ], [ inttoptr (i64 1 to ptr), %95 ], [ inttoptr (i64 1 to ptr), %lean_dec.exit35 ], [ inttoptr (i64 3 to ptr), %lean_obj_tag.exit73.thread ], [ inttoptr (i64 1 to ptr), %120 ], [ inttoptr (i64 1 to ptr), %119 ], [ inttoptr (i64 1 to ptr), %117 ], [ %spec.select, %lean_obj_tag.exit60 ], [ %spec.select79, %lean_obj_tag.exit73 ]
  ret ptr %.0
}